target datalayout = "e-m:e-p270:32:32-p271:32:32-p272:64:64-i64:64-i128:128-f80:128-n8:16:32:64-S128"
target triple = "x86_64-pc-linux-gnu"

%struct.ma_biquad = type { i32, i32, %union.ma_biquad_coefficient, %union.ma_biquad_coefficient, %union.ma_biquad_coefficient, %union.ma_biquad_coefficient, %union.ma_biquad_coefficient, ptr, ptr, ptr, i32 }
%union.ma_biquad_coefficient = type { float }

; Function Attrs: nounwind uwtable
define i32 @ma_biquad_clear_cache(ptr noundef %0) #0 {
  %2 = alloca i32, align 4
  %3 = alloca ptr, align 8
  store ptr %0, ptr %3, align 8, !tbaa !25
  %4 = load ptr, ptr %3, align 8, !tbaa !25
  %5 = icmp eq ptr %4, null
  br i1 %5, label %6, label %7

6:                                                ; preds = %1
  store i32 -2, ptr %2, align 4
  br label %27

7:                                                ; preds = %1
  %8 = load ptr, ptr %3, align 8, !tbaa !25
  %9 = getelementptr inbounds nuw %struct.ma_biquad, ptr %8, i32 0, i32 0
  %10 = load i32, ptr %9, align 8, !tbaa !418
  %11 = icmp eq i32 %10, 5
  br i1 %11, label %12, label %19

12:                                               ; preds = %7
  %13 = load ptr, ptr %3, align 8, !tbaa !25
  %14 = getelementptr inbounds nuw %struct.ma_biquad, ptr %13, i32 0, i32 7
  %15 = load ptr, ptr %14, align 8, !tbaa !416
  store float 0.000000e+00, ptr %15, align 4, !tbaa !14
  %16 = load ptr, ptr %3, align 8, !tbaa !25
  %17 = getelementptr inbounds nuw %struct.ma_biquad, ptr %16, i32 0, i32 8
  %18 = load ptr, ptr %17, align 8, !tbaa !417
  store float 0.000000e+00, ptr %18, align 4, !tbaa !14
  br label %26

19:                                               ; preds = %7
  %20 = load ptr, ptr %3, align 8, !tbaa !25
  %21 = getelementptr inbounds nuw %struct.ma_biquad, ptr %20, i32 0, i32 7
  %22 = load ptr, ptr %21, align 8, !tbaa !416
  store i32 0, ptr %22, align 4, !tbaa !14
  %23 = load ptr, ptr %3, align 8, !tbaa !25
  %24 = getelementptr inbounds nuw %struct.ma_biquad, ptr %23, i32 0, i32 8
  %25 = load ptr, ptr %24, align 8, !tbaa !417
  store i32 0, ptr %25, align 4, !tbaa !14
  br label %26

26:                                               ; preds = %19, %12
  store i32 0, ptr %2, align 4
  br label %27

27:                                               ; preds = %26, %6
  %28 = load i32, ptr %2, align 4
  ret i32 %28
}