; Function Attrs: mustprogress nofree norecurse nosync nounwind willreturn memory(write, argmem: readwrite, inaccessiblemem: none) uwtable
define range(i32 -2, 1) i32 @ma_biquad_clear_cache(ptr noundef readonly captures(address_is_null) %0) local_unnamed_addr #34 {
  %2 = icmp eq ptr %0, null
  br i1 %2, label %13, label %3

3:                                                ; preds = %1
  %4 = load i32, ptr %0, align 8, !tbaa !455
  %5 = icmp eq i32 %4, 5
  %6 = getelementptr inbounds nuw i8, ptr %0, i64 32
  %7 = load ptr, ptr %6, align 8, !tbaa !453
  %8 = getelementptr inbounds nuw i8, ptr %0, i64 40
  br i1 %5, label %9, label %11

9:                                                ; preds = %3
  store float 0.000000e+00, ptr %7, align 4, !tbaa !7
  %10 = load ptr, ptr %8, align 8, !tbaa !454
  store float 0.000000e+00, ptr %10, align 4, !tbaa !7
  br label %13

11:                                               ; preds = %3
  store i32 0, ptr %7, align 4, !tbaa !7
  %12 = load ptr, ptr %8, align 8, !tbaa !454
  store i32 0, ptr %12, align 4, !tbaa !7
  br label %13

13:                                               ; preds = %9, %11, %1
  %.0 = phi i32 [ -2, %1 ], [ 0, %11 ], [ 0, %9 ]
  ret i32 %.0
}